; Function Attrs: mustprogress nofree norecurse nosync nounwind willreturn memory(read, inaccessiblemem: none) uwtable
define dso_local noundef i32 @_ZN5ImGui15GetColumnsCountEv() local_unnamed_addr #12 {
  %1 = load ptr, ptr @GImGui, align 8, !tbaa !4
  %2 = getelementptr inbounds nuw i8, ptr %1, i64 4928
  %3 = load ptr, ptr %2, align 8, !tbaa !9
  %4 = getelementptr inbounds nuw i8, ptr %3, i64 448
  %5 = load ptr, ptr %4, align 8, !tbaa !608
  %.not = icmp eq ptr %5, null
  br i1 %.not, label %9, label %6

6:                                                ; preds = %0
  %7 = getelementptr inbounds nuw i8, ptr %5, i64 16
  %8 = load i32, ptr %7, align 8, !tbaa !613
  br label %9

9:                                                ; preds = %0, %6
  %10 = phi i32 [ %8, %6 ], [ 1, %0 ]
  ret i32 %10
}